target datalayout = "e-m:e-p270:32:32-p271:32:32-p272:64:64-i64:64-i128:128-f80:128-n8:16:32:64-S128"
target triple = "x86_64-pc-linux-gnu"

%struct.UBiDi = type { ptr, ptr, i32, i32, i32, i32, i32, i32, i32, i32, i32, ptr, ptr, ptr, ptr, ptr, ptr, i8, i8, ptr, ptr, i8, i32, i32, i8, i8, i8, ptr, i32, ptr, i32, ptr, i32, i32, i32, i32, i32, ptr, [10 x %struct.Para], i32, ptr, [1 x %struct.Run], i32, ptr, [5 x %struct.Isolate], %struct.InsertPoints, i32, ptr, ptr }
%struct.Para = type { i32, i32 }
%struct.Run = type { i32, i32, i32 }
%struct.Isolate = type { i32, i32, i32, i16 }
%struct.InsertPoints = type { i32, i32, i32, i32, ptr }

; Function Attrs: mustprogress nounwind uwtable
define internal void @_ZL18setTrailingWSStartP5UBiDi(ptr noundef %0) #4 {
  %2 = alloca ptr, align 8
  %3 = alloca ptr, align 8
  %4 = alloca ptr, align 8
  %5 = alloca i32, align 4
  %6 = alloca i8, align 1
  %7 = alloca i32, align 4
  store ptr %0, ptr %2, align 8, !tbaa !3
  call void @llvm.lifetime.start.p0(i64 8, ptr %3) #8
  %8 = load ptr, ptr %2, align 8, !tbaa !3
  %9 = getelementptr inbounds nuw %struct.UBiDi, ptr %8, i32 0, i32 19
  %10 = load ptr, ptr %9, align 8, !tbaa !45
  store ptr %10, ptr %3, align 8, !tbaa !50
  call void @llvm.lifetime.start.p0(i64 8, ptr %4) #8
  %11 = load ptr, ptr %2, align 8, !tbaa !3
  %12 = getelementptr inbounds nuw %struct.UBiDi, ptr %11, i32 0, i32 20
  %13 = load ptr, ptr %12, align 8, !tbaa !46
  store ptr %13, ptr %4, align 8, !tbaa !50
  call void @llvm.lifetime.start.p0(i64 4, ptr %5) #8
  %14 = load ptr, ptr %2, align 8, !tbaa !3
  %15 = getelementptr inbounds nuw %struct.UBiDi, ptr %14, i32 0, i32 3
  %16 = load i32, ptr %15, align 4, !tbaa !26
  store i32 %16, ptr %5, align 4, !tbaa !8
  call void @llvm.lifetime.start.p0(i64 1, ptr %6) #8
  %17 = load ptr, ptr %2, align 8, !tbaa !3
  %18 = getelementptr inbounds nuw %struct.UBiDi, ptr %17, i32 0, i32 25
  %19 = load i8, ptr %18, align 1, !tbaa !34
  store i8 %19, ptr %6, align 1, !tbaa !51
  %20 = load ptr, ptr %3, align 8, !tbaa !50
  %21 = load i32, ptr %5, align 4, !tbaa !8
  %22 = sub nsw i32 %21, 1
  %23 = sext i32 %22 to i64
  %24 = getelementptr inbounds i8, ptr %20, i64 %23
  %25 = load i8, ptr %24, align 1, !tbaa !51
  %26 = zext i8 %25 to i32
  %27 = icmp eq i32 %26, 7
  br i1 %27, label %28, label %32

28:                                               ; preds = %1
  %29 = load i32, ptr %5, align 4, !tbaa !8
  %30 = load ptr, ptr %2, align 8, !tbaa !3
  %31 = getelementptr inbounds nuw %struct.UBiDi, ptr %30, i32 0, i32 35
  store i32 %29, ptr %31, align 4, !tbaa !49
  store i32 1, ptr %7, align 4
  br label %77

32:                                               ; preds = %1
  br label %33

33:                                               ; preds = %50, %32
  %34 = load i32, ptr %5, align 4, !tbaa !8
  %35 = icmp sgt i32 %34, 0
  br i1 %35, label %36, label %48

36:                                               ; preds = %33
  %37 = load ptr, ptr %3, align 8, !tbaa !50
  %38 = load i32, ptr %5, align 4, !tbaa !8
  %39 = sub nsw i32 %38, 1
  %40 = sext i32 %39 to i64
  %41 = getelementptr inbounds i8, ptr %37, i64 %40
  %42 = load i8, ptr %41, align 1, !tbaa !51
  %43 = zext i8 %42 to i32
  %44 = zext i32 %43 to i64
  %45 = shl i64 1, %44
  %46 = and i64 %45, 8248192
  %47 = icmp ne i64 %46, 0
  br label %48

48:                                               ; preds = %36, %33
  %49 = phi i1 [ false, %33 ], [ %47, %36 ]
  br i1 %49, label %50, label %53

50:                                               ; preds = %48
  %51 = load i32, ptr %5, align 4, !tbaa !8
  %52 = add nsw i32 %51, -1
  store i32 %52, ptr %5, align 4, !tbaa !8
  br label %33, !llvm.loop !53

53:                                               ; preds = %48
  br label %54

54:                                               ; preds = %70, %53
  %55 = load i32, ptr %5, align 4, !tbaa !8
  %56 = icmp sgt i32 %55, 0
  br i1 %56, label %57, label %68

57:                                               ; preds = %54
  %58 = load ptr, ptr %4, align 8, !tbaa !50
  %59 = load i32, ptr %5, align 4, !tbaa !8
  %60 = sub nsw i32 %59, 1
  %61 = sext i32 %60 to i64
  %62 = getelementptr inbounds i8, ptr %58, i64 %61
  %63 = load i8, ptr %62, align 1, !tbaa !51
  %64 = zext i8 %63 to i32
  %65 = load i8, ptr %6, align 1, !tbaa !51
  %66 = zext i8 %65 to i32
  %67 = icmp eq i32 %64, %66
  br label %68

68:                                               ; preds = %57, %54
  %69 = phi i1 [ false, %54 ], [ %67, %57 ]
  br i1 %69, label %70, label %73

70:                                               ; preds = %68
  %71 = load i32, ptr %5, align 4, !tbaa !8
  %72 = add nsw i32 %71, -1
  store i32 %72, ptr %5, align 4, !tbaa !8
  br label %54, !llvm.loop !54

73:                                               ; preds = %68
  %74 = load i32, ptr %5, align 4, !tbaa !8
  %75 = load ptr, ptr %2, align 8, !tbaa !3
  %76 = getelementptr inbounds nuw %struct.UBiDi, ptr %75, i32 0, i32 35
  store i32 %74, ptr %76, align 4, !tbaa !49
  store i32 0, ptr %7, align 4
  br label %77

77:                                               ; preds = %73, %28
  call void @llvm.lifetime.end.p0(i64 1, ptr %6) #8
  call void @llvm.lifetime.end.p0(i64 4, ptr %5) #8
  call void @llvm.lifetime.end.p0(i64 8, ptr %4) #8
  call void @llvm.lifetime.end.p0(i64 8, ptr %3) #8
  %78 = load i32, ptr %7, align 4
  switch i32 %78, label %80 [
    i32 0, label %79
    i32 1, label %79
  ]

79:                                               ; preds = %77, %77
  ret void

80:                                               ; preds = %77
  unreachable
}