; Function Attrs: mustprogress nofree norecurse nosync nounwind memory(read, argmem: readwrite, inaccessiblemem: none) uwtable
define internal fastcc void @_ZL18setTrailingWSStartP5UBiDi(ptr noundef nonnull captures(none) %0) unnamed_addr #3 {
  %2 = getelementptr inbounds nuw i8, ptr %0, i64 112
  %3 = load ptr, ptr %2, align 8, !tbaa !42
  %4 = getelementptr inbounds nuw i8, ptr %0, i64 120
  %5 = load ptr, ptr %4, align 8, !tbaa !43
  %6 = getelementptr inbounds nuw i8, ptr %0, i64 20
  %7 = load i32, ptr %6, align 4, !tbaa !23
  %8 = getelementptr inbounds nuw i8, ptr %0, i64 141
  %9 = load i8, ptr %8, align 1, !tbaa !31
  %10 = sext i32 %7 to i64
  %11 = getelementptr i8, ptr %3, i64 %10
  %12 = getelementptr i8, ptr %11, i64 -1
  %13 = load i8, ptr %12, align 1, !tbaa !47
  %14 = icmp eq i8 %13, 7
  br i1 %14, label %.critedge2, label %.preheader

.preheader:                                       ; preds = %1
  %invariant.gep = getelementptr i8, ptr %3, i64 -1
  %15 = icmp sgt i32 %7, 0
  br i1 %15, label %.lr.ph, label %.critedge2

.lr.ph:                                           ; preds = %.preheader, %21
  %.020 = phi i32 [ %22, %21 ], [ %7, %.preheader ]
  %16 = zext nneg i32 %.020 to i64
  %gep = getelementptr i8, ptr %invariant.gep, i64 %16
  %17 = load i8, ptr %gep, align 1, !tbaa !47
  %18 = zext nneg i8 %17 to i64
  %19 = shl nuw i64 1, %18
  %20 = and i64 %19, 8248192
  %.not = icmp eq i64 %20, 0
  br i1 %.not, label %.lr.ph26.preheader, label %21

21:                                               ; preds = %.lr.ph
  %22 = add nsw i32 %.020, -1
  %23 = icmp sgt i32 %.020, 1
  br i1 %23, label %.lr.ph, label %.critedge2, !llvm.loop !49

.lr.ph26.preheader:                               ; preds = %.lr.ph
  %invariant.gep23 = getelementptr i8, ptr %5, i64 -1
  br label %.lr.ph26

.lr.ph26:                                         ; preds = %.lr.ph26.preheader, %27
  %.125 = phi i32 [ %28, %27 ], [ %.020, %.lr.ph26.preheader ]
  %24 = zext nneg i32 %.125 to i64
  %gep24 = getelementptr i8, ptr %invariant.gep23, i64 %24
  %25 = load i8, ptr %gep24, align 1, !tbaa !47
  %26 = icmp eq i8 %25, %9
  br i1 %26, label %27, label %.critedge2

27:                                               ; preds = %.lr.ph26
  %28 = add nsw i32 %.125, -1
  %29 = icmp sgt i32 %.125, 1
  br i1 %29, label %.lr.ph26, label %.critedge2, !llvm.loop !50

.critedge2:                                       ; preds = %21, %27, %.lr.ph26, %.preheader, %1
  %.1.lcssa.sink = phi i32 [ %7, %1 ], [ %7, %.preheader ], [ 0, %27 ], [ %.125, %.lr.ph26 ], [ 0, %21 ]
  %30 = getelementptr inbounds nuw i8, ptr %0, i64 196
  store i32 %.1.lcssa.sink, ptr %30, align 4, !tbaa !46
  ret void
}